; Function Attrs: inlinehint mustprogress nofree norecurse nosync nounwind willreturn memory(read, argmem: readwrite, inaccessiblemem: none) uwtable
define internal void @"_ZZ16lean_uv_udp_recvEN3$_08__invokeEP11uv_handle_smP8uv_buf_t"(ptr noundef readonly captures(none) %0, i64 %1, ptr noundef writeonly captures(none) initializes((0, 16)) %2) #12 align 2 {
  %.val = load ptr, ptr %0, align 8, !tbaa !54
  %4 = getelementptr i8, ptr %.val, i64 16
  %.val.val = load ptr, ptr %4, align 8, !tbaa !40
  %5 = getelementptr i8, ptr %.val.val, i64 16
  %.val.val.val = load ptr, ptr %5, align 8, !tbaa !19
  %6 = getelementptr inbounds nuw i8, ptr %.val.val.val, i64 24
  store ptr %6, ptr %2, align 8, !tbaa !56
  %7 = getelementptr i8, ptr %.val.val.val, i64 16
  %.val5.i = load i64, ptr %7, align 8, !tbaa !41
  %8 = getelementptr inbounds nuw i8, ptr %2, i64 8
  store i64 %.val5.i, ptr %8, align 8, !tbaa !58
  ret void
}